
build/matmul32:     file format elf32-littleriscv


Disassembly of section .text.init:

00000000 <_start>:
   0:	00000093          	li	ra,0
   4:	00000113          	li	sp,0
   8:	00000193          	li	gp,0
   c:	00000213          	li	tp,0
  10:	00000293          	li	t0,0
  14:	00000313          	li	t1,0
  18:	00000393          	li	t2,0
  1c:	00000413          	li	s0,0
  20:	00000493          	li	s1,0
  24:	00000513          	li	a0,0
  28:	00000593          	li	a1,0
  2c:	00000613          	li	a2,0
  30:	00000693          	li	a3,0
  34:	00000713          	li	a4,0
  38:	00000793          	li	a5,0
  3c:	00000813          	li	a6,0
  40:	00000893          	li	a7,0
  44:	00000913          	li	s2,0
  48:	00000993          	li	s3,0
  4c:	00000a13          	li	s4,0
  50:	00000a93          	li	s5,0
  54:	00000b13          	li	s6,0
  58:	00000b93          	li	s7,0
  5c:	00000c13          	li	s8,0
  60:	00000c93          	li	s9,0
  64:	00000d13          	li	s10,0
  68:	00000d93          	li	s11,0
  6c:	00000e13          	li	t3,0
  70:	00000e93          	li	t4,0
  74:	00000f13          	li	t5,0
  78:	00000f93          	li	t6,0
  7c:	10000137          	lui	sp,0x10000
  80:	ff010113          	addi	sp,sp,-16 # ffffff0 <_end+0xfffcfe4>
  84:	08c010ef          	jal	ra,1110 <main>
  88:	00000513          	li	a0,0
  8c:	04c010ef          	jal	ra,10d8 <exit>
  90:	0000006f          	j	90 <_start+0x90>

Disassembly of section .text:

00001000 <multiply>:
    1000:	00050613          	mv	a2,a0
    1004:	00000793          	li	a5,0
    1008:	00000513          	li	a0,0
    100c:	02000813          	li	a6,32
    1010:	40f5d733          	sra	a4,a1,a5
    1014:	00177713          	andi	a4,a4,1
    1018:	00f616b3          	sll	a3,a2,a5
    101c:	00178793          	addi	a5,a5,1
    1020:	00070463          	beqz	a4,1028 <multiply+0x28>
    1024:	00d50533          	add	a0,a0,a3
    1028:	ff0794e3          	bne	a5,a6,1010 <multiply+0x10>
    102c:	00008067          	ret

00001030 <arrEquals>:
    1030:	04050813          	addi	a6,a0,64
    1034:	44050513          	addi	a0,a0,1088
    1038:	fc080793          	addi	a5,a6,-64
    103c:	00058713          	mv	a4,a1
    1040:	0007a603          	lw	a2,0(a5)
    1044:	00072683          	lw	a3,0(a4)
    1048:	00478793          	addi	a5,a5,4
    104c:	00470713          	addi	a4,a4,4
    1050:	00d61e63          	bne	a2,a3,106c <arrEquals+0x3c>
    1054:	ff0796e3          	bne	a5,a6,1040 <arrEquals+0x10>
    1058:	04078813          	addi	a6,a5,64
    105c:	04058593          	addi	a1,a1,64
    1060:	fca81ce3          	bne	a6,a0,1038 <arrEquals+0x8>
    1064:	00100513          	li	a0,1
    1068:	00008067          	ret
    106c:	00000513          	li	a0,0
    1070:	00008067          	ret

00001074 <getchar>:
    1074:	ff010113          	addi	sp,sp,-16
    1078:	00812623          	sw	s0,12(sp)
    107c:	01010413          	addi	s0,sp,16
    1080:	00001797          	auipc	a5,0x1
    1084:	f8478793          	addi	a5,a5,-124 # 2004 <GET_ADDR>
    1088:	0007a783          	lw	a5,0(a5)
    108c:	0007a783          	lw	a5,0(a5)
    1090:	00078513          	mv	a0,a5
    1094:	00c12403          	lw	s0,12(sp)
    1098:	01010113          	addi	sp,sp,16
    109c:	00008067          	ret

000010a0 <putchar>:
    10a0:	fe010113          	addi	sp,sp,-32
    10a4:	00812e23          	sw	s0,28(sp)
    10a8:	02010413          	addi	s0,sp,32
    10ac:	fea42623          	sw	a0,-20(s0)
    10b0:	00001797          	auipc	a5,0x1
    10b4:	f5078793          	addi	a5,a5,-176 # 2000 <PUT_ADDR>
    10b8:	0007a783          	lw	a5,0(a5)
    10bc:	fec42703          	lw	a4,-20(s0)
    10c0:	00e7a023          	sw	a4,0(a5)
    10c4:	fec42783          	lw	a5,-20(s0)
    10c8:	00078513          	mv	a0,a5
    10cc:	01c12403          	lw	s0,28(sp)
    10d0:	02010113          	addi	sp,sp,32
    10d4:	00008067          	ret

000010d8 <exit>:
    10d8:	fe010113          	addi	sp,sp,-32
    10dc:	00812e23          	sw	s0,28(sp)
    10e0:	02010413          	addi	s0,sp,32
    10e4:	fea42623          	sw	a0,-20(s0)
    10e8:	00001797          	auipc	a5,0x1
    10ec:	f2078793          	addi	a5,a5,-224 # 2008 <FINISH_ADDR>
    10f0:	0007a783          	lw	a5,0(a5)
    10f4:	fec42703          	lw	a4,-20(s0)
    10f8:	00e7a023          	sw	a4,0(a5)
    10fc:	fec42783          	lw	a5,-20(s0)
    1100:	00078513          	mv	a0,a5
    1104:	01c12403          	lw	s0,28(sp)
    1108:	02010113          	addi	sp,sp,32
    110c:	00008067          	ret

Disassembly of section .text.startup:

00001110 <main>:
    1110:	fc010113          	addi	sp,sp,-64
    1114:	00001717          	auipc	a4,0x1
    1118:	ee072c23          	sw	zero,-264(a4) # 200c <expected>
    111c:	00001717          	auipc	a4,0x1
    1120:	ee072a23          	sw	zero,-268(a4) # 2010 <expected+0x4>
    1124:	00001717          	auipc	a4,0x1
    1128:	ee072823          	sw	zero,-272(a4) # 2014 <expected+0x8>
    112c:	00001717          	auipc	a4,0x1
    1130:	ee072623          	sw	zero,-276(a4) # 2018 <expected+0xc>
    1134:	00001717          	auipc	a4,0x1
    1138:	ee072423          	sw	zero,-280(a4) # 201c <expected+0x10>
    113c:	00001717          	auipc	a4,0x1
    1140:	ee072223          	sw	zero,-284(a4) # 2020 <expected+0x14>
    1144:	00001717          	auipc	a4,0x1
    1148:	ee072023          	sw	zero,-288(a4) # 2024 <expected+0x18>
    114c:	00001717          	auipc	a4,0x1
    1150:	ec072e23          	sw	zero,-292(a4) # 2028 <expected+0x1c>
    1154:	00001717          	auipc	a4,0x1
    1158:	ec072c23          	sw	zero,-296(a4) # 202c <expected+0x20>
    115c:	00001717          	auipc	a4,0x1
    1160:	ec072a23          	sw	zero,-300(a4) # 2030 <expected+0x24>
    1164:	00001717          	auipc	a4,0x1
    1168:	ec072823          	sw	zero,-304(a4) # 2034 <expected+0x28>
    116c:	00001717          	auipc	a4,0x1
    1170:	ec072623          	sw	zero,-308(a4) # 2038 <expected+0x2c>
    1174:	00001717          	auipc	a4,0x1
    1178:	ec072423          	sw	zero,-312(a4) # 203c <expected+0x30>
    117c:	00001717          	auipc	a4,0x1
    1180:	ec072223          	sw	zero,-316(a4) # 2040 <expected+0x34>
    1184:	00001717          	auipc	a4,0x1
    1188:	ec072023          	sw	zero,-320(a4) # 2044 <expected+0x38>
    118c:	00001717          	auipc	a4,0x1
    1190:	ea072e23          	sw	zero,-324(a4) # 2048 <expected+0x3c>
    1194:	00001797          	auipc	a5,0x1
    1198:	e7878793          	addi	a5,a5,-392 # 200c <expected>
    119c:	02112e23          	sw	ra,60(sp)
    11a0:	02812c23          	sw	s0,56(sp)
    11a4:	02912a23          	sw	s1,52(sp)
    11a8:	03212823          	sw	s2,48(sp)
    11ac:	03312623          	sw	s3,44(sp)
    11b0:	03412423          	sw	s4,40(sp)
    11b4:	03512223          	sw	s5,36(sp)
    11b8:	03612023          	sw	s6,32(sp)
    11bc:	01712e23          	sw	s7,28(sp)
    11c0:	01812c23          	sw	s8,24(sp)
    11c4:	01912a23          	sw	s9,20(sp)
    11c8:	01a12823          	sw	s10,16(sp)
    11cc:	01b12623          	sw	s11,12(sp)
    11d0:	07800713          	li	a4,120
    11d4:	04e7a023          	sw	a4,64(a5)
    11d8:	08800713          	li	a4,136
    11dc:	04e7a223          	sw	a4,68(a5)
    11e0:	09800713          	li	a4,152
    11e4:	04e7a423          	sw	a4,72(a5)
    11e8:	0f000893          	li	a7,240
    11ec:	0a800713          	li	a4,168
    11f0:	04e7a623          	sw	a4,76(a5)
    11f4:	0917a023          	sw	a7,128(a5)
    11f8:	11000893          	li	a7,272
    11fc:	0917a223          	sw	a7,132(a5)
    1200:	13000893          	li	a7,304
    1204:	0917a423          	sw	a7,136(a5)
    1208:	15000893          	li	a7,336
    120c:	0917a623          	sw	a7,140(a5)
    1210:	0b800713          	li	a4,184
    1214:	17000893          	li	a7,368
    1218:	04e7a823          	sw	a4,80(a5)
    121c:	0917a823          	sw	a7,144(a5)
    1220:	0c800713          	li	a4,200
    1224:	19000893          	li	a7,400
    1228:	04e7aa23          	sw	a4,84(a5)
    122c:	0917aa23          	sw	a7,148(a5)
    1230:	0d800713          	li	a4,216
    1234:	1b000893          	li	a7,432
    1238:	04e7ac23          	sw	a4,88(a5)
    123c:	0917ac23          	sw	a7,152(a5)
    1240:	0e800713          	li	a4,232
    1244:	1d000893          	li	a7,464
    1248:	04e7ae23          	sw	a4,92(a5)
    124c:	0917ae23          	sw	a7,156(a5)
    1250:	0f800713          	li	a4,248
    1254:	1f000893          	li	a7,496
    1258:	06e7a023          	sw	a4,96(a5)
    125c:	0b17a023          	sw	a7,160(a5)
    1260:	10800713          	li	a4,264
    1264:	21000893          	li	a7,528
    1268:	06e7a223          	sw	a4,100(a5)
    126c:	0b17a223          	sw	a7,164(a5)
    1270:	11800713          	li	a4,280
    1274:	23000893          	li	a7,560
    1278:	16800593          	li	a1,360
    127c:	06e7a423          	sw	a4,104(a5)
    1280:	0b17a423          	sw	a7,168(a5)
    1284:	12800713          	li	a4,296
    1288:	25000893          	li	a7,592
    128c:	06e7a623          	sw	a4,108(a5)
    1290:	06b7ae23          	sw	a1,124(a5)
    1294:	0b17a623          	sw	a7,172(a5)
    1298:	0cb7a023          	sw	a1,192(a5)
    129c:	13800713          	li	a4,312
    12a0:	27000893          	li	a7,624
    12a4:	19800593          	li	a1,408
    12a8:	06e7a823          	sw	a4,112(a5)
    12ac:	0b17a823          	sw	a7,176(a5)
    12b0:	0cb7a223          	sw	a1,196(a5)
    12b4:	14800713          	li	a4,328
    12b8:	29000893          	li	a7,656
    12bc:	1c800593          	li	a1,456
    12c0:	2d000693          	li	a3,720
    12c4:	06e7aa23          	sw	a4,116(a5)
    12c8:	0b17aa23          	sw	a7,180(a5)
    12cc:	0cb7a423          	sw	a1,200(a5)
    12d0:	15800713          	li	a4,344
    12d4:	2b000893          	li	a7,688
    12d8:	1f800593          	li	a1,504
    12dc:	06e7ac23          	sw	a4,120(a5)
    12e0:	0b17ac23          	sw	a7,184(a5)
    12e4:	0ad7ae23          	sw	a3,188(a5)
    12e8:	0cb7a623          	sw	a1,204(a5)
    12ec:	22800593          	li	a1,552
    12f0:	0cb7a823          	sw	a1,208(a5)
    12f4:	28800593          	li	a1,648
    12f8:	0cb7ac23          	sw	a1,216(a5)
    12fc:	2b800593          	li	a1,696
    1300:	0cb7ae23          	sw	a1,220(a5)
    1304:	2e800593          	li	a1,744
    1308:	0eb7a023          	sw	a1,224(a5)
    130c:	31800593          	li	a1,792
    1310:	0eb7a223          	sw	a1,228(a5)
    1314:	37800593          	li	a1,888
    1318:	0eb7a623          	sw	a1,236(a5)
    131c:	3a800593          	li	a1,936
    1320:	0eb7a823          	sw	a1,240(a5)
    1324:	3d800593          	li	a1,984
    1328:	0eb7aa23          	sw	a1,244(a5)
    132c:	40800593          	li	a1,1032
    1330:	0eb7ac23          	sw	a1,248(a5)
    1334:	1e000593          	li	a1,480
    1338:	10b7a023          	sw	a1,256(a5)
    133c:	22000593          	li	a1,544
    1340:	10b7a223          	sw	a1,260(a5)
    1344:	26000593          	li	a1,608
    1348:	10b7a423          	sw	a1,264(a5)
    134c:	2a000593          	li	a1,672
    1350:	10b7a623          	sw	a1,268(a5)
    1354:	2e000593          	li	a1,736
    1358:	10b7a823          	sw	a1,272(a5)
    135c:	32000593          	li	a1,800
    1360:	10b7aa23          	sw	a1,276(a5)
    1364:	36000593          	li	a1,864
    1368:	10b7ac23          	sw	a1,280(a5)
    136c:	3a000593          	li	a1,928
    1370:	10b7ae23          	sw	a1,284(a5)
    1374:	3e000593          	li	a1,992
    1378:	12b7a023          	sw	a1,288(a5)
    137c:	42000593          	li	a1,1056
    1380:	25800613          	li	a2,600
    1384:	12b7a223          	sw	a1,292(a5)
    1388:	46000593          	li	a1,1120
    138c:	0cc7aa23          	sw	a2,212(a5)
    1390:	12b7a423          	sw	a1,296(a5)
    1394:	14c7a023          	sw	a2,320(a5)
    1398:	4a000593          	li	a1,1184
    139c:	2a800613          	li	a2,680
    13a0:	12b7a623          	sw	a1,300(a5)
    13a4:	14c7a223          	sw	a2,324(a5)
    13a8:	4e000593          	li	a1,1248
    13ac:	2f800613          	li	a2,760
    13b0:	12b7a823          	sw	a1,304(a5)
    13b4:	14c7a423          	sw	a2,328(a5)
    13b8:	52000593          	li	a1,1312
    13bc:	39800613          	li	a2,920
    13c0:	34800813          	li	a6,840
    13c4:	43800513          	li	a0,1080
    13c8:	12b7aa23          	sw	a1,308(a5)
    13cc:	14c7a823          	sw	a2,336(a5)
    13d0:	56000593          	li	a1,1376
    13d4:	3e800613          	li	a2,1000
    13d8:	0f07a423          	sw	a6,232(a5)
    13dc:	0ea7ae23          	sw	a0,252(a5)
    13e0:	12b7ac23          	sw	a1,312(a5)
    13e4:	1507a623          	sw	a6,332(a5)
    13e8:	14c7aa23          	sw	a2,340(a5)
    13ec:	39000393          	li	t2,912
    13f0:	14a7ac23          	sw	a0,344(a5)
    13f4:	1877a423          	sw	t2,392(a5)
    13f8:	3f000393          	li	t2,1008
    13fc:	1877a623          	sw	t2,396(a5)
    1400:	45000393          	li	t2,1104
    1404:	1877a823          	sw	t2,400(a5)
    1408:	51000393          	li	t2,1296
    140c:	1877ac23          	sw	t2,408(a5)
    1410:	48800613          	li	a2,1160
    1414:	57000393          	li	t2,1392
    1418:	14c7ae23          	sw	a2,348(a5)
    141c:	1877ae23          	sw	t2,412(a5)
    1420:	4d800613          	li	a2,1240
    1424:	5d000393          	li	t2,1488
    1428:	16c7a023          	sw	a2,352(a5)
    142c:	1a77a023          	sw	t2,416(a5)
    1430:	1d07a023          	sw	a6,448(a5)
    1434:	5c800613          	li	a2,1480
    1438:	63000393          	li	t2,1584
    143c:	3b800813          	li	a6,952
    1440:	16c7a623          	sw	a2,364(a5)
    1444:	1a77a223          	sw	t2,420(a5)
    1448:	1d07a223          	sw	a6,452(a5)
    144c:	66800613          	li	a2,1640
    1450:	6f000393          	li	t2,1776
    1454:	42800813          	li	a6,1064
    1458:	00001737          	lui	a4,0x1
    145c:	16c7aa23          	sw	a2,372(a5)
    1460:	1a77a623          	sw	t2,428(a5)
    1464:	1d07a423          	sw	a6,456(a5)
    1468:	6b800613          	li	a2,1720
    146c:	75000393          	li	t2,1872
    1470:	49800813          	li	a6,1176
    1474:	87070493          	addi	s1,a4,-1936 # 870 <_start+0x870>
    1478:	69000593          	li	a1,1680
    147c:	61800f93          	li	t6,1560
    1480:	57800893          	li	a7,1400
    1484:	52800413          	li	s0,1320
    1488:	16c7ac23          	sw	a2,376(a5)
    148c:	18d7a023          	sw	a3,384(a5)
    1490:	70800613          	li	a2,1800
    1494:	81070e93          	addi	t4,a4,-2032
    1498:	4b000913          	li	s2,1200
    149c:	5a000293          	li	t0,1440
    14a0:	1a77a823          	sw	t2,432(a5)
    14a4:	1d07a623          	sw	a6,460(a5)
    14a8:	33000693          	li	a3,816
    14ac:	7b000393          	li	t2,1968
    14b0:	50800813          	li	a6,1288
    14b4:	1687a223          	sw	s0,356(a5)
    14b8:	1717a423          	sw	a7,360(a5)
    14bc:	17f7a823          	sw	t6,368(a5)
    14c0:	18d7a223          	sw	a3,388(a5)
    14c4:	5e800993          	li	s3,1512
    14c8:	1257ae23          	sw	t0,316(a5)
    14cc:	16c7ae23          	sw	a2,380(a5)
    14d0:	1927aa23          	sw	s2,404(a5)
    14d4:	1ab7a423          	sw	a1,424(a5)
    14d8:	1a77aa23          	sw	t2,436(a5)
    14dc:	1bd7ac23          	sw	t4,440(a5)
    14e0:	1a97ae23          	sw	s1,444(a5)
    14e4:	1d07a823          	sw	a6,464(a5)
    14e8:	1d17aa23          	sw	a7,468(a5)
    14ec:	65800813          	li	a6,1624
    14f0:	1d37ac23          	sw	s3,472(a5)
    14f4:	1d07ae23          	sw	a6,476(a5)
    14f8:	6c800813          	li	a6,1736
    14fc:	1f07a023          	sw	a6,480(a5)
    1500:	7a800813          	li	a6,1960
    1504:	1f07a423          	sw	a6,488(a5)
    1508:	3c000813          	li	a6,960
    150c:	2107a023          	sw	a6,512(a5)
    1510:	24a7a023          	sw	a0,576(a5)
    1514:	44000813          	li	a6,1088
    1518:	4c800513          	li	a0,1224
    151c:	2107a223          	sw	a6,516(a5)
    1520:	24a7a223          	sw	a0,580(a5)
    1524:	4c000813          	li	a6,1216
    1528:	55800513          	li	a0,1368
    152c:	2107a423          	sw	a6,520(a5)
    1530:	24a7a423          	sw	a0,584(a5)
    1534:	54000813          	li	a6,1344
    1538:	6c000d93          	li	s11,1728
    153c:	67800513          	li	a0,1656
    1540:	81870a13          	addi	s4,a4,-2024
    1544:	2107a623          	sw	a6,524(a5)
    1548:	21b7ac23          	sw	s11,536(a5)
    154c:	24a7a823          	sw	a0,592(a5)
    1550:	5c000813          	li	a6,1472
    1554:	74000d93          	li	s11,1856
    1558:	79800513          	li	a0,1944
    155c:	9d870693          	addi	a3,a4,-1576
    1560:	88870f13          	addi	t5,a4,-1912
    1564:	73800093          	li	ra,1848
    1568:	8f870e13          	addi	t3,a4,-1800
    156c:	96870313          	addi	t1,a4,-1688
    1570:	1f47a623          	sw	s4,492(a5)
    1574:	84070d13          	addi	s10,a4,-1984
    1578:	8c070c93          	addi	s9,a4,-1856
    157c:	94070c13          	addi	s8,a4,-1728
    1580:	9c070b93          	addi	s7,a4,-1600
    1584:	a4070b13          	addi	s6,a4,-1472
    1588:	ac070a93          	addi	s5,a4,-1344
    158c:	b4070a13          	addi	s4,a4,-1216
    1590:	2107a823          	sw	a6,528(a5)
    1594:	21b7ae23          	sw	s11,540(a5)
    1598:	24a7ac23          	sw	a0,600(a5)
    159c:	64000813          	li	a6,1600
    15a0:	00001537          	lui	a0,0x1
    15a4:	7c000d93          	li	s11,1984
    15a8:	1e17a223          	sw	ra,484(a5)
    15ac:	1fe7a823          	sw	t5,496(a5)
    15b0:	1fc7aa23          	sw	t3,500(a5)
    15b4:	1e67ac23          	sw	t1,504(a5)
    15b8:	1ed7ae23          	sw	a3,508(a5)
    15bc:	2107aa23          	sw	a6,532(a5)
    15c0:	23b7a023          	sw	s11,544(a5)
    15c4:	23a7a223          	sw	s10,548(a5)
    15c8:	2397a423          	sw	s9,552(a5)
    15cc:	2387a623          	sw	s8,556(a5)
    15d0:	2377a823          	sw	s7,560(a5)
    15d4:	2367aa23          	sw	s6,564(a5)
    15d8:	2357ac23          	sw	s5,568(a5)
    15dc:	2347ae23          	sw	s4,572(a5)
    15e0:	2537a623          	sw	s3,588(a5)
    15e4:	24c7aa23          	sw	a2,596(a5)
    15e8:	82850993          	addi	s3,a0,-2008 # 828 <_start+0x828>
    15ec:	2537ae23          	sw	s3,604(a5)
    15f0:	8b850993          	addi	s3,a0,-1864
    15f4:	2737a023          	sw	s3,608(a5)
    15f8:	a6850993          	addi	s3,a0,-1432
    15fc:	2737a623          	sw	s3,620(a5)
    1600:	b8850993          	addi	s3,a0,-1144
    1604:	2737aa23          	sw	s3,628(a5)
    1608:	c1850993          	addi	s3,a0,-1000
    160c:	55000513          	li	a0,1360
    1610:	2737ac23          	sw	s3,632(a5)
    1614:	28a7a223          	sw	a0,644(a5)
    1618:	d7070993          	addi	s3,a4,-656
    161c:	2897ac23          	sw	s1,664(a5)
    1620:	2c87a023          	sw	s0,704(a5)
    1624:	000014b7          	lui	s1,0x1
    1628:	5f000513          	li	a0,1520
    162c:	5d800413          	li	s0,1496
    1630:	94870393          	addi	t2,a4,-1720
    1634:	af870e93          	addi	t4,a4,-1288
    1638:	af070313          	addi	t1,a4,-1296
    163c:	ca870893          	addi	a7,a4,-856
    1640:	2927a023          	sw	s2,640(a5)
    1644:	28a7a423          	sw	a0,648(a5)
    1648:	91070c93          	addi	s9,a4,-1776
    164c:	9b070c13          	addi	s8,a4,-1616
    1650:	a5070b93          	addi	s7,a4,-1456
    1654:	b9070b13          	addi	s6,a4,-1136
    1658:	c3070a93          	addi	s5,a4,-976
    165c:	cd070a13          	addi	s4,a4,-816
    1660:	89870913          	addi	s2,a4,-1896
    1664:	9f870d93          	addi	s11,a4,-1544
    1668:	2b37ac23          	sw	s3,696(a5)
    166c:	2c87a223          	sw	s0,708(a5)
    1670:	e1048993          	addi	s3,s1,-496 # e10 <_start+0xe10>
    1674:	2c17a623          	sw	ra,716(a5)
    1678:	73000513          	li	a0,1840
    167c:	7d000d13          	li	s10,2000
    1680:	68800413          	li	s0,1672
    1684:	7e800093          	li	ra,2024
    1688:	2677a223          	sw	t2,612(a5)
    168c:	26d7a423          	sw	a3,616(a5)
    1690:	27d7a823          	sw	t4,624(a5)
    1694:	28b7a623          	sw	a1,652(a5)
    1698:	28a7a823          	sw	a0,656(a5)
    169c:	29a7aa23          	sw	s10,660(a5)
    16a0:	2997ae23          	sw	s9,668(a5)
    16a4:	2b87a023          	sw	s8,672(a5)
    16a8:	2b77a223          	sw	s7,676(a5)
    16ac:	2a67a423          	sw	t1,680(a5)
    16b0:	2b67a623          	sw	s6,684(a5)
    16b4:	2b57a823          	sw	s5,688(a5)
    16b8:	2b47aa23          	sw	s4,692(a5)
    16bc:	2b37ae23          	sw	s3,700(a5)
    16c0:	2c87a423          	sw	s0,712(a5)
    16c4:	2c17a823          	sw	ra,720(a5)
    16c8:	2d27aa23          	sw	s2,724(a5)
    16cc:	2c77ac23          	sw	t2,728(a5)
    16d0:	2db7ae23          	sw	s11,732(a5)
    16d4:	aa848093          	addi	ra,s1,-1368
    16d8:	2717ae23          	sw	a7,636(a5)
    16dc:	2e17a023          	sw	ra,736(a5)
    16e0:	b5848093          	addi	ra,s1,-1192
    16e4:	2e17a223          	sw	ra,740(a5)
    16e8:	3057a023          	sw	t0,768(a5)
    16ec:	c0848093          	addi	ra,s1,-1016
    16f0:	66000293          	li	t0,1632
    16f4:	2e17a423          	sw	ra,744(a5)
    16f8:	3057a223          	sw	t0,772(a5)
    16fc:	cb848093          	addi	ra,s1,-840
    1700:	72000293          	li	t0,1824
    1704:	2e17a623          	sw	ra,748(a5)
    1708:	3057a423          	sw	t0,776(a5)
    170c:	e1848093          	addi	ra,s1,-488
    1710:	7e000293          	li	t0,2016
    1714:	2e17aa23          	sw	ra,756(a5)
    1718:	3057a623          	sw	t0,780(a5)
    171c:	ec848093          	addi	ra,s1,-312
    1720:	8a048293          	addi	t0,s1,-1888
    1724:	35f7a023          	sw	t6,832(a5)
    1728:	6e800f93          	li	t6,1768
    172c:	d6870e13          	addi	t3,a4,-664
    1730:	f7870813          	addi	a6,a4,-136
    1734:	2e17ac23          	sw	ra,760(a5)
    1738:	3057a823          	sw	t0,784(a5)
    173c:	96070d93          	addi	s11,a4,-1696
    1740:	a2070d13          	addi	s10,a4,-1504
    1744:	ae070c93          	addi	s9,a4,-1312
    1748:	ba070c13          	addi	s8,a4,-1120
    174c:	c6070b93          	addi	s7,a4,-928
    1750:	d2070b13          	addi	s6,a4,-736
    1754:	de070a93          	addi	s5,a4,-544
    1758:	ea070a13          	addi	s4,a4,-352
    175c:	f6070993          	addi	s3,a4,-160
    1760:	02070913          	addi	s2,a4,32
    1764:	0e070493          	addi	s1,a4,224
    1768:	95870413          	addi	s0,a4,-1704
    176c:	a2870093          	addi	ra,a4,-1496
    1770:	bc870393          	addi	t2,a4,-1080
    1774:	c9870293          	addi	t0,a4,-872
    1778:	35f7a223          	sw	t6,836(a5)
    177c:	7b800f93          	li	t6,1976
    1780:	2fc7a823          	sw	t3,752(a5)
    1784:	2f07ae23          	sw	a6,764(a5)
    1788:	31b7aa23          	sw	s11,788(a5)
    178c:	31a7ac23          	sw	s10,792(a5)
    1790:	3197ae23          	sw	s9,796(a5)
    1794:	3387a023          	sw	s8,800(a5)
    1798:	3377a223          	sw	s7,804(a5)
    179c:	3367a423          	sw	s6,808(a5)
    17a0:	3357a623          	sw	s5,812(a5)
    17a4:	3347a823          	sw	s4,816(a5)
    17a8:	3337aa23          	sw	s3,820(a5)
    17ac:	3327ac23          	sw	s2,824(a5)
    17b0:	3297ae23          	sw	s1,828(a5)
    17b4:	35f7a423          	sw	t6,840(a5)
    17b8:	35e7a623          	sw	t5,844(a5)
    17bc:	3487a823          	sw	s0,848(a5)
    17c0:	3417aa23          	sw	ra,852(a5)
    17c4:	35d7ac23          	sw	t4,856(a5)
    17c8:	3477ae23          	sw	t2,860(a5)
    17cc:	3657a023          	sw	t0,864(a5)
    17d0:	37c7a223          	sw	t3,868(a5)
    17d4:	00001e37          	lui	t3,0x1
    17d8:	e38e0e93          	addi	t4,t3,-456 # e38 <_start+0xe38>
    17dc:	37d7a423          	sw	t4,872(a5)
    17e0:	38b7a023          	sw	a1,896(a5)
    17e4:	f08e0e93          	addi	t4,t3,-248
    17e8:	77000593          	li	a1,1904
    17ec:	37d7a623          	sw	t4,876(a5)
    17f0:	38b7a223          	sw	a1,900(a5)
    17f4:	fd8e0e93          	addi	t4,t3,-40
    17f8:	850e0593          	addi	a1,t3,-1968
    17fc:	37d7a823          	sw	t4,880(a5)
    1800:	38b7a423          	sw	a1,904(a5)
    1804:	0a8e0e93          	addi	t4,t3,168
    1808:	930e0593          	addi	a1,t3,-1744
    180c:	24870513          	addi	a0,a4,584
    1810:	bd070d93          	addi	s11,a4,-1072
    1814:	37d7aa23          	sw	t4,884(a5)
    1818:	38b7a623          	sw	a1,908(a5)
    181c:	178e0e93          	addi	t4,t3,376
    1820:	a10e0593          	addi	a1,t3,-1520
    1824:	3cc7a023          	sw	a2,960(a5)
    1828:	cb070d13          	addi	s10,a4,-848
    182c:	d9070c93          	addi	s9,a4,-624
    1830:	e7070c13          	addi	s8,a4,-400
    1834:	f5070b93          	addi	s7,a4,-176
    1838:	03070b13          	addi	s6,a4,48
    183c:	11070a93          	addi	s5,a4,272
    1840:	1f070a13          	addi	s4,a4,496
    1844:	2d070993          	addi	s3,a4,720
    1848:	3b070913          	addi	s2,a4,944
    184c:	8e870493          	addi	s1,a4,-1816
    1850:	ac870413          	addi	s0,a4,-1336
    1854:	bb870093          	addi	ra,a4,-1096
    1858:	d9870393          	addi	t2,a4,-616
    185c:	e8870293          	addi	t0,a4,-376
    1860:	7f800613          	li	a2,2040
    1864:	37d7ac23          	sw	t4,888(a5)
    1868:	36a7ae23          	sw	a0,892(a5)
    186c:	38b7a823          	sw	a1,912(a5)
    1870:	3867aa23          	sw	t1,916(a5)
    1874:	39b7ac23          	sw	s11,920(a5)
    1878:	3cd7a623          	sw	a3,972(a5)
    187c:	3f07a223          	sw	a6,996(a5)
    1880:	06870e93          	addi	t4,a4,104
    1884:	15870e13          	addi	t3,a4,344
    1888:	33870313          	addi	t1,a4,824
    188c:	42870593          	addi	a1,a4,1064
    1890:	39a7ae23          	sw	s10,924(a5)
    1894:	3b97a023          	sw	s9,928(a5)
    1898:	3b87a223          	sw	s8,932(a5)
    189c:	3b77a423          	sw	s7,936(a5)
    18a0:	3b67a623          	sw	s6,940(a5)
    18a4:	3b57a823          	sw	s5,944(a5)
    18a8:	3b47aa23          	sw	s4,948(a5)
    18ac:	3b37ac23          	sw	s3,952(a5)
    18b0:	3b27ae23          	sw	s2,956(a5)
    18b4:	3cc7a223          	sw	a2,964(a5)
    18b8:	3c97a423          	sw	s1,968(a5)
    18bc:	3c87a823          	sw	s0,976(a5)
    18c0:	3c17aa23          	sw	ra,980(a5)
    18c4:	3d17ac23          	sw	a7,984(a5)
    18c8:	3c77ae23          	sw	t2,988(a5)
    18cc:	3e57a023          	sw	t0,992(a5)
    18d0:	51870713          	addi	a4,a4,1304
    18d4:	00001f17          	auipc	t5,0x1
    18d8:	b38f0f13          	addi	t5,t5,-1224 # 240c <a>
    18dc:	00001f97          	auipc	t6,0x1
    18e0:	f30f8f93          	addi	t6,t6,-208 # 280c <b>
    18e4:	3fd7a423          	sw	t4,1000(a5)
    18e8:	000f8d93          	mv	s11,t6
    18ec:	3ea7a823          	sw	a0,1008(a5)
    18f0:	3fc7a623          	sw	t3,1004(a5)
    18f4:	3e67aa23          	sw	t1,1012(a5)
    18f8:	3eb7ac23          	sw	a1,1016(a5)
    18fc:	3ee7ae23          	sw	a4,1020(a5)
    1900:	000f0693          	mv	a3,t5
    1904:	01000513          	li	a0,16
    1908:	00000793          	li	a5,0
    190c:	01000813          	li	a6,16
    1910:	00078713          	mv	a4,a5
    1914:	000d8593          	mv	a1,s11
    1918:	00068613          	mv	a2,a3
    191c:	00e5a023          	sw	a4,0(a1)
    1920:	00f62023          	sw	a5,0(a2)
    1924:	00170713          	addi	a4,a4,1
    1928:	00460613          	addi	a2,a2,4
    192c:	00458593          	addi	a1,a1,4
    1930:	fea716e3          	bne	a4,a0,191c <main+0x80c>
    1934:	00178793          	addi	a5,a5,1
    1938:	04068693          	addi	a3,a3,64
    193c:	040d8d93          	addi	s11,s11,64
    1940:	00170513          	addi	a0,a4,1
    1944:	fd0796e3          	bne	a5,a6,1910 <main+0x800>
    1948:	00001297          	auipc	t0,0x1
    194c:	2c428293          	addi	t0,t0,708 # 2c0c <c>
    1950:	00001997          	auipc	s3,0x1
    1954:	6bc98993          	addi	s3,s3,1724 # 300c <_end>
    1958:	00000093          	li	ra,0
    195c:	00001917          	auipc	s2,0x1
    1960:	ef090913          	addi	s2,s2,-272 # 284c <b+0x40>
    1964:	00001497          	auipc	s1,0x1
    1968:	ae848493          	addi	s1,s1,-1304 # 244c <a+0x40>
    196c:	02000813          	li	a6,32
    1970:	00609e93          	slli	t4,ra,0x6
    1974:	01ee8a33          	add	s4,t4,t5
    1978:	000f8393          	mv	t2,t6
    197c:	01d48eb3          	add	t4,s1,t4
    1980:	00028413          	mv	s0,t0
    1984:	00038313          	mv	t1,t2
    1988:	000a0893          	mv	a7,s4
    198c:	00000e13          	li	t3,0
    1990:	0008a503          	lw	a0,0(a7)
    1994:	00032583          	lw	a1,0(t1)
    1998:	00000613          	li	a2,0
    199c:	00000793          	li	a5,0
    19a0:	40f5d733          	sra	a4,a1,a5
    19a4:	00177713          	andi	a4,a4,1
    19a8:	00f516b3          	sll	a3,a0,a5
    19ac:	00178793          	addi	a5,a5,1
    19b0:	00070463          	beqz	a4,19b8 <main+0x8a8>
    19b4:	00d60633          	add	a2,a2,a3
    19b8:	ff0794e3          	bne	a5,a6,19a0 <main+0x890>
    19bc:	00488893          	addi	a7,a7,4
    19c0:	00ce0e33          	add	t3,t3,a2
    19c4:	04030313          	addi	t1,t1,64
    19c8:	fdd894e3          	bne	a7,t4,1990 <main+0x880>
    19cc:	01c42023          	sw	t3,0(s0)
    19d0:	00438393          	addi	t2,t2,4
    19d4:	00440413          	addi	s0,s0,4
    19d8:	fa7916e3          	bne	s2,t2,1984 <main+0x874>
    19dc:	04028293          	addi	t0,t0,64
    19e0:	00108093          	addi	ra,ra,1
    19e4:	f93296e3          	bne	t0,s3,1970 <main+0x860>
    19e8:	00001597          	auipc	a1,0x1
    19ec:	22458593          	addi	a1,a1,548 # 2c0c <c>
    19f0:	00000517          	auipc	a0,0x0
    19f4:	61c50513          	addi	a0,a0,1564 # 200c <expected>
    19f8:	e38ff0ef          	jal	ra,1030 <arrEquals>
    19fc:	04050663          	beqz	a0,1a48 <main+0x938>
    1a00:	00000513          	li	a0,0
    1a04:	ed4ff0ef          	jal	ra,10d8 <exit>
    1a08:	03c12083          	lw	ra,60(sp)
    1a0c:	03812403          	lw	s0,56(sp)
    1a10:	03412483          	lw	s1,52(sp)
    1a14:	03012903          	lw	s2,48(sp)
    1a18:	02c12983          	lw	s3,44(sp)
    1a1c:	02812a03          	lw	s4,40(sp)
    1a20:	02412a83          	lw	s5,36(sp)
    1a24:	02012b03          	lw	s6,32(sp)
    1a28:	01c12b83          	lw	s7,28(sp)
    1a2c:	01812c03          	lw	s8,24(sp)
    1a30:	01412c83          	lw	s9,20(sp)
    1a34:	01012d03          	lw	s10,16(sp)
    1a38:	00c12d83          	lw	s11,12(sp)
    1a3c:	00000513          	li	a0,0
    1a40:	04010113          	addi	sp,sp,64
    1a44:	00008067          	ret
    1a48:	00100513          	li	a0,1
    1a4c:	e8cff0ef          	jal	ra,10d8 <exit>
    1a50:	fb9ff06f          	j	1a08 <main+0x8f8>
